; Function Attrs: null_pointer_is_valid sspstrong uwtable
define zeroext i1 @new_page(ptr noundef %0) local_unnamed_addr #0 {
  %2 = load ptr, ptr %0, align 8
  %3 = getelementptr inbounds nuw i8, ptr %2, i64 32
  %4 = load ptr, ptr %3, align 8
  %.not = icmp eq ptr %4, null
  br i1 %.not, label %7, label %5

5:                                                ; preds = %1
  %6 = tail call zeroext i1 %4(ptr noundef %0)
  br label %7

7:                                                ; preds = %1, %5
  %8 = phi i1 [ %6, %5 ], [ true, %1 ]
  ret i1 %8
}